	.file	"binomial.cpp"
	.intel_syntax noprefix
	.section .rdata,"dr"
__ZStL19piecewise_construct:
	.space 1
.lcomm __ZStL8__ioinit,1,1
	.text
	.globl	__Z13binomialCoeffii
	.def	__Z13binomialCoeffii;	.scl	2;	.type	32;	.endef
__Z13binomialCoeffii:
LFB1445:
	.cfi_startproc
	push	ebp
	.cfi_def_cfa_offset 8
	.cfi_offset 5, -8
	mov	ebp, esp
	.cfi_def_cfa_register 5
	push	ebx
	sub	esp, 20
	.cfi_offset 3, -12
	mov	eax, DWORD PTR [ebp+12]
	cmp	eax, DWORD PTR [ebp+8]
	jle	L2
	mov	eax, 0
	jmp	L3
L2:
	cmp	DWORD PTR [ebp+12], 0
	je	L4
	mov	eax, DWORD PTR [ebp+12]
	cmp	eax, DWORD PTR [ebp+8]
	jne	L5
L4:
	mov	eax, 1
	jmp	L3
L5:
	mov	eax, DWORD PTR [ebp+12]
	lea	edx, [eax-1]
	mov	eax, DWORD PTR [ebp+8]
	sub	eax, 1
	mov	DWORD PTR [esp+4], edx
	mov	DWORD PTR [esp], eax
	call	__Z13binomialCoeffii
	mov	ebx, eax
	mov	eax, DWORD PTR [ebp+8]
	lea	edx, [eax-1]
	mov	eax, DWORD PTR [ebp+12]
	mov	DWORD PTR [esp+4], eax
	mov	DWORD PTR [esp], edx
	call	__Z13binomialCoeffii
	add	eax, ebx
L3:
	add	esp, 20
	pop	ebx
	.cfi_restore 3
	pop	ebp
	.cfi_restore 5
	.cfi_def_cfa 4, 4
	ret
	.cfi_endproc
LFE1445:
	.def	___main;	.scl	2;	.type	32;	.endef
	.section .rdata,"dr"
LC0:
	.ascii "Value of C(\0"
LC1:
	.ascii ", \0"
LC2:
	.ascii ") is \0"
	.text
	.globl	_main
	.def	_main;	.scl	2;	.type	32;	.endef
_main:
LFB1446:
	.cfi_startproc
	lea	ecx, [esp+4]
	.cfi_def_cfa 1, 0
	and	esp, -16
	push	DWORD PTR [ecx-4]
	push	ebp
	.cfi_escape 0x10,0x5,0x2,0x75,0
	mov	ebp, esp
	push	ebx
	push	ecx
	.cfi_escape 0xf,0x3,0x75,0x78,0x6
	.cfi_escape 0x10,0x3,0x2,0x75,0x7c
	sub	esp, 32
	call	___main
	mov	DWORD PTR [ebp-12], 5
	mov	DWORD PTR [ebp-16], 2
	mov	eax, DWORD PTR [ebp-16]
	mov	DWORD PTR [esp+4], eax
	mov	eax, DWORD PTR [ebp-12]
	mov	DWORD PTR [esp], eax
	call	__Z13binomialCoeffii
	mov	ebx, eax
	mov	DWORD PTR [esp+4], OFFSET FLAT:LC0
	mov	DWORD PTR [esp], OFFSET FLAT:__ZSt4cout
	call	__ZStlsISt11char_traitsIcEERSt13basic_ostreamIcT_ES5_PKc
	mov	edx, eax
	mov	eax, DWORD PTR [ebp-12]
	mov	DWORD PTR [esp], eax
	mov	ecx, edx
	call	__ZNSolsEi
	sub	esp, 4
	mov	DWORD PTR [esp+4], OFFSET FLAT:LC1
	mov	DWORD PTR [esp], eax
	call	__ZStlsISt11char_traitsIcEERSt13basic_ostreamIcT_ES5_PKc
	mov	edx, eax
	mov	eax, DWORD PTR [ebp-16]
	mov	DWORD PTR [esp], eax
	mov	ecx, edx
	call	__ZNSolsEi
	sub	esp, 4
	mov	DWORD PTR [esp+4], OFFSET FLAT:LC2
	mov	DWORD PTR [esp], eax
	call	__ZStlsISt11char_traitsIcEERSt13basic_ostreamIcT_ES5_PKc
	mov	DWORD PTR [esp], ebx
	mov	ecx, eax
	call	__ZNSolsEi
	sub	esp, 4
	mov	eax, 0
	lea	esp, [ebp-8]
	pop	ecx
	.cfi_restore 1
	.cfi_def_cfa 1, 0
	pop	ebx
	.cfi_restore 3
	pop	ebp
	.cfi_restore 5
	lea	esp, [ecx-4]
	.cfi_def_cfa 4, 4
	ret
	.cfi_endproc
LFE1446:
	.def	___tcf_0;	.scl	3;	.type	32;	.endef
___tcf_0:
LFB1874:
	.cfi_startproc
	push	ebp
	.cfi_def_cfa_offset 8
	.cfi_offset 5, -8
	mov	ebp, esp
	.cfi_def_cfa_register 5
	sub	esp, 8
	mov	ecx, OFFSET FLAT:__ZStL8__ioinit
	call	__ZNSt8ios_base4InitD1Ev
	leave
	.cfi_restore 5
	.cfi_def_cfa 4, 4
	ret
	.cfi_endproc
LFE1874:
	.def	__Z41__static_initialization_and_destruction_0ii;	.scl	3;	.type	32;	.endef
__Z41__static_initialization_and_destruction_0ii:
LFB1873:
	.cfi_startproc
	push	ebp
	.cfi_def_cfa_offset 8
	.cfi_offset 5, -8
	mov	ebp, esp
	.cfi_def_cfa_register 5
	sub	esp, 24
	cmp	DWORD PTR [ebp+8], 1
	jne	L11
	cmp	DWORD PTR [ebp+12], 65535
	jne	L11
	mov	ecx, OFFSET FLAT:__ZStL8__ioinit
	call	__ZNSt8ios_base4InitC1Ev
	mov	DWORD PTR [esp], OFFSET FLAT:___tcf_0
	call	_atexit
L11:
	nop
	leave
	.cfi_restore 5
	.cfi_def_cfa 4, 4
	ret
	.cfi_endproc
LFE1873:
	.def	__GLOBAL__sub_I__Z13binomialCoeffii;	.scl	3;	.type	32;	.endef
__GLOBAL__sub_I__Z13binomialCoeffii:
LFB1875:
	.cfi_startproc
	push	ebp
	.cfi_def_cfa_offset 8
	.cfi_offset 5, -8
	mov	ebp, esp
	.cfi_def_cfa_register 5
	sub	esp, 24
	mov	DWORD PTR [esp+4], 65535
	mov	DWORD PTR [esp], 1
	call	__Z41__static_initialization_and_destruction_0ii
	leave
	.cfi_restore 5
	.cfi_def_cfa 4, 4
	ret
	.cfi_endproc
LFE1875:
	.section	.ctors,"w"
	.align 4
	.long	__GLOBAL__sub_I__Z13binomialCoeffii
	.ident	"GCC: (MinGW.org GCC-6.3.0-1) 6.3.0"
	.def	__ZStlsISt11char_traitsIcEERSt13basic_ostreamIcT_ES5_PKc;	.scl	2;	.type	32;	.endef
	.def	__ZNSolsEi;	.scl	2;	.type	32;	.endef
	.def	__ZNSt8ios_base4InitD1Ev;	.scl	2;	.type	32;	.endef
	.def	__ZNSt8ios_base4InitC1Ev;	.scl	2;	.type	32;	.endef
	.def	_atexit;	.scl	2;	.type	32;	.endef
